; ModuleID = 'source-C-CXX/27/542.c'
source_filename = "source-C-CXX/27/542.c"
target datalayout = "e-m:e-p270:32:32-p271:32:32-p272:64:64-i64:64-f80:128-n8:16:32:64-S128"
target triple = "x86_64-pc-linux-gnu"

@.str = private unnamed_addr constant [4 x i8] c"%d,\00", align 1
@.str.1 = private unnamed_addr constant [3 x i8] c"%d\00", align 1

; Function Attrs: nounwind sspstrong uwtable
define dso_local i32 @main() local_unnamed_addr #0 {
  %1 = alloca [3000 x i8], align 16
  %2 = alloca [300 x i32], align 16
  %3 = getelementptr inbounds [3000 x i8], [3000 x i8]* %1, i64 0, i64 0
  call void @llvm.lifetime.start.p0i8(i64 3000, i8* nonnull %3) #6
  %4 = bitcast [300 x i32]* %2 to i8*
  call void @llvm.lifetime.start.p0i8(i64 1200, i8* nonnull %4) #6
  call void @llvm.memset.p0i8.i64(i8* noundef nonnull align 16 dereferenceable(1200) %4, i8 0, i64 1200, i1 false)
  %5 = call i32 (i8*, ...) bitcast (i32 (...)* @gets to i32 (i8*, ...)*)(i8* nonnull %3) #6
  %6 = call i64 @strlen(i8* noundef nonnull %3) #7
  %7 = trunc i64 %6 to i32
  %8 = icmp sgt i32 %7, 0
  br i1 %8, label %9, label %60

9:                                                ; preds = %0
  %10 = and i64 %6, 4294967295
  %11 = and i64 %6, 1
  %12 = icmp eq i64 %10, 1
  br i1 %12, label %15, label %13

13:                                               ; preds = %9
  %14 = sub nsw i64 %10, %11
  br label %38

15:                                               ; preds = %80, %9
  %16 = phi i32 [ undef, %9 ], [ %81, %80 ]
  %17 = phi i64 [ 0, %9 ], [ %83, %80 ]
  %18 = phi i32 [ 0, %9 ], [ %82, %80 ]
  %19 = phi i32 [ 0, %9 ], [ %81, %80 ]
  %20 = icmp eq i64 %11, 0
  br i1 %20, label %33, label %21

21:                                               ; preds = %15
  %22 = getelementptr inbounds [3000 x i8], [3000 x i8]* %1, i64 0, i64 %17
  %23 = load i8, i8* %22, align 1, !tbaa !5
  %24 = icmp eq i8 %23, 32
  br i1 %24, label %33, label %25

25:                                               ; preds = %21
  %26 = icmp eq i32 %18, 1
  %27 = zext i1 %26 to i32
  %28 = add nsw i32 %19, %27
  %29 = sext i32 %28 to i64
  %30 = getelementptr inbounds [300 x i32], [300 x i32]* %2, i64 0, i64 %29
  %31 = load i32, i32* %30, align 4, !tbaa !8
  %32 = add nsw i32 %31, 1
  store i32 %32, i32* %30, align 4, !tbaa !8
  br label %33

33:                                               ; preds = %25, %21, %15
  %34 = phi i32 [ %16, %15 ], [ %28, %25 ], [ %19, %21 ]
  %35 = icmp sgt i32 %34, 0
  br i1 %35, label %36, label %60

36:                                               ; preds = %33
  %37 = zext i32 %34 to i64
  br label %66

38:                                               ; preds = %80, %13
  %39 = phi i64 [ 0, %13 ], [ %83, %80 ]
  %40 = phi i32 [ 0, %13 ], [ %82, %80 ]
  %41 = phi i32 [ 0, %13 ], [ %81, %80 ]
  %42 = phi i64 [ %14, %13 ], [ %84, %80 ]
  %43 = getelementptr inbounds [3000 x i8], [3000 x i8]* %1, i64 0, i64 %39
  %44 = load i8, i8* %43, align 2, !tbaa !5
  %45 = icmp eq i8 %44, 32
  br i1 %45, label %54, label %46

46:                                               ; preds = %38
  %47 = icmp eq i32 %40, 1
  %48 = zext i1 %47 to i32
  %49 = add nsw i32 %41, %48
  %50 = sext i32 %49 to i64
  %51 = getelementptr inbounds [300 x i32], [300 x i32]* %2, i64 0, i64 %50
  %52 = load i32, i32* %51, align 4, !tbaa !8
  %53 = add nsw i32 %52, 1
  store i32 %53, i32* %51, align 4, !tbaa !8
  br label %54

54:                                               ; preds = %38, %46
  %55 = phi i32 [ %49, %46 ], [ %41, %38 ]
  %56 = or i64 %39, 1
  %57 = getelementptr inbounds [3000 x i8], [3000 x i8]* %1, i64 0, i64 %56
  %58 = load i8, i8* %57, align 1, !tbaa !5
  %59 = icmp eq i8 %58, 32
  br i1 %59, label %80, label %73

60:                                               ; preds = %66, %0, %33
  %61 = phi i32 [ %34, %33 ], [ 0, %0 ], [ %34, %66 ]
  %62 = sext i32 %61 to i64
  %63 = getelementptr inbounds [300 x i32], [300 x i32]* %2, i64 0, i64 %62
  %64 = load i32, i32* %63, align 4, !tbaa !8
  %65 = call i32 (i8*, ...) @printf(i8* nonnull dereferenceable(1) getelementptr inbounds ([3 x i8], [3 x i8]* @.str.1, i64 0, i64 0), i32 %64)
  call void @llvm.lifetime.end.p0i8(i64 1200, i8* nonnull %4) #6
  call void @llvm.lifetime.end.p0i8(i64 3000, i8* nonnull %3) #6
  ret i32 0

66:                                               ; preds = %36, %66
  %67 = phi i64 [ 0, %36 ], [ %71, %66 ]
  %68 = getelementptr inbounds [300 x i32], [300 x i32]* %2, i64 0, i64 %67
  %69 = load i32, i32* %68, align 4, !tbaa !8
  %70 = call i32 (i8*, ...) @printf(i8* nonnull dereferenceable(1) getelementptr inbounds ([4 x i8], [4 x i8]* @.str, i64 0, i64 0), i32 %69)
  %71 = add nuw nsw i64 %67, 1
  %72 = icmp eq i64 %71, %37
  br i1 %72, label %60, label %66, !llvm.loop !10

73:                                               ; preds = %54
  %74 = zext i1 %45 to i32
  %75 = add nsw i32 %55, %74
  %76 = sext i32 %75 to i64
  %77 = getelementptr inbounds [300 x i32], [300 x i32]* %2, i64 0, i64 %76
  %78 = load i32, i32* %77, align 4, !tbaa !8
  %79 = add nsw i32 %78, 1
  store i32 %79, i32* %77, align 4, !tbaa !8
  br label %80

80:                                               ; preds = %73, %54
  %81 = phi i32 [ %75, %73 ], [ %55, %54 ]
  %82 = phi i32 [ 0, %73 ], [ 1, %54 ]
  %83 = add nuw nsw i64 %39, 2
  %84 = add i64 %42, -2
  %85 = icmp eq i64 %84, 0
  br i1 %85, label %15, label %38, !llvm.loop !12
}

; Function Attrs: argmemonly mustprogress nofree nosync nounwind willreturn
declare void @llvm.lifetime.start.p0i8(i64 immarg, i8* nocapture) #1

; Function Attrs: argmemonly mustprogress nofree nounwind willreturn writeonly
declare void @llvm.memset.p0i8.i64(i8* nocapture writeonly, i8, i64, i1 immarg) #2

declare i32 @gets(...) local_unnamed_addr #3

; Function Attrs: argmemonly mustprogress nofree nounwind readonly willreturn
declare i64 @strlen(i8* nocapture) local_unnamed_addr #4

; Function Attrs: nofree nounwind
declare noundef i32 @printf(i8* nocapture noundef readonly, ...) local_unnamed_addr #5

; Function Attrs: argmemonly mustprogress nofree nosync nounwind willreturn
declare void @llvm.lifetime.end.p0i8(i64 immarg, i8* nocapture) #1


!llvm.module.flags = !{!0, !1, !2, !3}
!llvm.ident = !{!4}

!0 = !{i32 1, !"wchar_size", i32 4}
!1 = !{i32 7, !"PIC Level", i32 2}
!2 = !{i32 7, !"PIE Level", i32 2}
!3 = !{i32 7, !"uwtable", i32 1}
!4 = !{!"clang version 13.0.0"}
!5 = !{!6, !6, i64 0}
!6 = !{!"omnipotent char", !7, i64 0}
!7 = !{!"Simple C/C++ TBAA"}
!8 = !{!9, !9, i64 0}
!9 = !{!"int", !6, i64 0}
!10 = distinct !{!10, !11}
!11 = !{!"llvm.loop.mustprogress"}
!12 = distinct !{!12, !11}
